ARM GAS  C:\Users\GGPC\AppData\Local\Temp\ccRj0Vs2.s 			page 1


   1              		.syntax unified
   2              		.cpu cortex-m3
   3              		.fpu softvfp
   4              		.eabi_attribute 20, 1
   5              		.eabi_attribute 21, 1
   6              		.eabi_attribute 23, 3
   7              		.eabi_attribute 24, 1
   8              		.eabi_attribute 25, 1
   9              		.eabi_attribute 26, 1
  10              		.eabi_attribute 30, 1
  11              		.eabi_attribute 34, 1
  12              		.eabi_attribute 18, 4
  13              		.thumb
  14              		.syntax unified
  15              		.file	"main.c"
  16              		.text
  17              	.Ltext0:
  18              		.cfi_sections	.debug_frame
  19              		.section	.text.timerIntISR,"ax",%progbits
  20              		.align	2
  21              		.global	timerIntISR
  22              		.thumb
  23              		.thumb_func
  24              		.type	timerIntISR, %function
  25              	timerIntISR:
  26              	.LFB63:
  27              		.file 1 "main.c"
   1:main.c        **** #include "main.h"
   2:main.c        **** #include "frame.h"
   3:main.c        **** 
   4:main.c        **** CY_ISR(timerIntISR) {
  28              		.loc 1 4 0
  29              		.cfi_startproc
  30              		@ args = 0, pretend = 0, frame = 0
  31              		@ frame_needed = 0, uses_anonymous_args = 0
  32 0000 08B5     		push	{r3, lr}
  33              		.cfi_def_cfa_offset 8
  34              		.cfi_offset 3, -8
  35              		.cfi_offset 14, -4
   5:main.c        ****     tickCount++;
  36              		.loc 1 5 0
  37 0002 094A     		ldr	r2, .L4
  38 0004 1378     		ldrb	r3, [r2]	@ zero_extendqisi2
  39 0006 0133     		adds	r3, r3, #1
  40 0008 DBB2     		uxtb	r3, r3
  41 000a 1370     		strb	r3, [r2]
   6:main.c        ****     if (tickCount > 25) {
  42              		.loc 1 6 0
  43 000c 192B     		cmp	r3, #25
  44 000e 02D9     		bls	.L2
   7:main.c        ****         tickCount = 0;
  45              		.loc 1 7 0
  46 0010 0022     		movs	r2, #0
  47 0012 054B     		ldr	r3, .L4
  48 0014 1A70     		strb	r2, [r3]
  49              	.L2:
   8:main.c        ****     }
ARM GAS  C:\Users\GGPC\AppData\Local\Temp\ccRj0Vs2.s 			page 2


   9:main.c        ****     
  10:main.c        ****     ledPin_Write(!ledPin_Read());
  50              		.loc 1 10 0
  51 0016 FFF7FEFF 		bl	ledPin_Read
  52              	.LVL0:
  53 001a B0FA80F0 		clz	r0, r0
  54 001e 4009     		lsrs	r0, r0, #5
  55 0020 FFF7FEFF 		bl	ledPin_Write
  56              	.LVL1:
  57 0024 08BD     		pop	{r3, pc}
  58              	.L5:
  59 0026 00BF     		.align	2
  60              	.L4:
  61 0028 00000000 		.word	tickCount
  62              		.cfi_endproc
  63              	.LFE63:
  64              		.size	timerIntISR, .-timerIntISR
  65              		.section	.text.switchIntISR,"ax",%progbits
  66              		.align	2
  67              		.global	switchIntISR
  68              		.thumb
  69              		.thumb_func
  70              		.type	switchIntISR, %function
  71              	switchIntISR:
  72              	.LFB64:
  11:main.c        **** }
  12:main.c        **** 
  13:main.c        **** CY_ISR(switchIntISR) {
  73              		.loc 1 13 0
  74              		.cfi_startproc
  75              		@ args = 0, pretend = 0, frame = 0
  76              		@ frame_needed = 0, uses_anonymous_args = 0
  77              		@ link register save eliminated.
  14:main.c        ****     reset = 1;
  78              		.loc 1 14 0
  79 0000 0122     		movs	r2, #1
  80 0002 014B     		ldr	r3, .L7
  81 0004 1A70     		strb	r2, [r3]
  82 0006 7047     		bx	lr
  83              	.L8:
  84              		.align	2
  85              	.L7:
  86 0008 00000000 		.word	reset
  87              		.cfi_endproc
  88              	.LFE64:
  89              		.size	switchIntISR, .-switchIntISR
  90              		.section	.text.createScene,"ax",%progbits
  91              		.align	2
  92              		.global	createScene
  93              		.thumb
  94              		.thumb_func
  95              		.type	createScene, %function
  96              	createScene:
  97              	.LFB66:
  15:main.c        **** }
  16:main.c        **** 
  17:main.c        **** int main(void) {
ARM GAS  C:\Users\GGPC\AppData\Local\Temp\ccRj0Vs2.s 			page 3


  18:main.c        ****     CyGlobalIntEnable;
  19:main.c        ****     tickTimer_Start();
  20:main.c        ****     timerInt_StartEx(timerIntISR);
  21:main.c        ****     
  22:main.c        ****     createScene();
  23:main.c        ****     
  24:main.c        ****     tickCount = 0;
  25:main.c        ****     curFrame = 0;
  26:main.c        ****     nextFrame = 1;
  27:main.c        ****     reset = 0;
  28:main.c        ****     
  29:main.c        ****     for(;;) {
  30:main.c        ****         if (reset) {
  31:main.c        ****         tickCount = 0;
  32:main.c        ****         curFrame = 0;
  33:main.c        ****         reset = 0;
  34:main.c        ****         }
  35:main.c        ****         
  36:main.c        ****         if (nextFrame >= scene.frameCount) {
  37:main.c        ****             nextFrame = 0;
  38:main.c        ****         }
  39:main.c        ****         
  40:main.c        ****         if (tickCount == scene.frameList[nextFrame].pos) {
  41:main.c        ****             curFrame = nextFrame;
  42:main.c        ****             nextFrame++;
  43:main.c        ****             
  44:main.c        ****             pin12_0_Write(scene.frameList[curFrame].port12[0]);
  45:main.c        ****             pin12_1_Write(scene.frameList[curFrame].port12[1]);
  46:main.c        ****             pin12_2_Write(scene.frameList[curFrame].port12[2]);
  47:main.c        ****             pin12_3_Write(scene.frameList[curFrame].port12[3]);
  48:main.c        ****             pin12_4_Write(scene.frameList[curFrame].port12[4]);
  49:main.c        ****             pin12_5_Write(scene.frameList[curFrame].port12[5]);
  50:main.c        ****             pin12_6_Write(scene.frameList[curFrame].port12[6]);
  51:main.c        ****             pin12_7_Write(scene.frameList[curFrame].port12[7]);
  52:main.c        ****         }
  53:main.c        ****     }
  54:main.c        **** }
  55:main.c        **** 
  56:main.c        **** void createScene() {
  98              		.loc 1 56 0
  99              		.cfi_startproc
 100              		@ args = 0, pretend = 0, frame = 0
 101              		@ frame_needed = 0, uses_anonymous_args = 0
 102              		@ link register save eliminated.
  57:main.c        ****     scene.frameCount = 2;
 103              		.loc 1 57 0
 104 0000 064B     		ldr	r3, .L10
 105 0002 0222     		movs	r2, #2
 106 0004 1A60     		str	r2, [r3]
  58:main.c        ****     
  59:main.c        ****     scene.frameList[0].pos = 0;
 107              		.loc 1 59 0
 108 0006 0022     		movs	r2, #0
 109 0008 5A60     		str	r2, [r3, #4]
  60:main.c        ****     
  61:main.c        ****     scene.frameList[0].port12[0] = 1;
 110              		.loc 1 61 0
ARM GAS  C:\Users\GGPC\AppData\Local\Temp\ccRj0Vs2.s 			page 4


 111 000a 0122     		movs	r2, #1
 112 000c 9A60     		str	r2, [r3, #8]
  62:main.c        ****     scene.frameList[0].port12[3] = 1;
 113              		.loc 1 62 0
 114 000e 5A61     		str	r2, [r3, #20]
  63:main.c        ****     scene.frameList[0].port12[6] = 1;
 115              		.loc 1 63 0
 116 0010 1A62     		str	r2, [r3, #32]
  64:main.c        ****     
  65:main.c        ****     scene.frameList[1].pos = 15;
 117              		.loc 1 65 0
 118 0012 0F21     		movs	r1, #15
 119 0014 9962     		str	r1, [r3, #40]
  66:main.c        ****     
  67:main.c        ****     scene.frameList[1].port12[3] = 1;
 120              		.loc 1 67 0
 121 0016 9A63     		str	r2, [r3, #56]
 122 0018 7047     		bx	lr
 123              	.L11:
 124 001a 00BF     		.align	2
 125              	.L10:
 126 001c 00000000 		.word	scene
 127              		.cfi_endproc
 128              	.LFE66:
 129              		.size	createScene, .-createScene
 130              		.section	.text.main,"ax",%progbits
 131              		.align	2
 132              		.global	main
 133              		.thumb
 134              		.thumb_func
 135              		.type	main, %function
 136              	main:
 137              	.LFB65:
  17:main.c        ****     CyGlobalIntEnable;
 138              		.loc 1 17 0
 139              		.cfi_startproc
 140              		@ Volatile: function does not return.
 141              		@ args = 0, pretend = 0, frame = 0
 142              		@ frame_needed = 0, uses_anonymous_args = 0
 143 0000 08B5     		push	{r3, lr}
 144              		.cfi_def_cfa_offset 8
 145              		.cfi_offset 3, -8
 146              		.cfi_offset 14, -4
  18:main.c        ****     tickTimer_Start();
 147              		.loc 1 18 0
 148              		.syntax unified
 149              	@ 18 "main.c" 1
 150 0002 62B6     		CPSIE   i
 151              	@ 0 "" 2
  19:main.c        ****     timerInt_StartEx(timerIntISR);
 152              		.loc 1 19 0
 153              		.thumb
 154              		.syntax unified
 155 0004 FFF7FEFF 		bl	tickTimer_Start
 156              	.LVL2:
  20:main.c        ****     
 157              		.loc 1 20 0
ARM GAS  C:\Users\GGPC\AppData\Local\Temp\ccRj0Vs2.s 			page 5


 158 0008 3948     		ldr	r0, .L18
 159 000a FFF7FEFF 		bl	timerInt_StartEx
 160              	.LVL3:
  22:main.c        ****     
 161              		.loc 1 22 0
 162 000e FFF7FEFF 		bl	createScene
 163              	.LVL4:
  24:main.c        ****     curFrame = 0;
 164              		.loc 1 24 0
 165 0012 0023     		movs	r3, #0
 166 0014 374A     		ldr	r2, .L18+4
 167 0016 1370     		strb	r3, [r2]
  26:main.c        ****     reset = 0;
 168              		.loc 1 26 0
 169 0018 0121     		movs	r1, #1
 170 001a 374A     		ldr	r2, .L18+8
 171 001c 1170     		strb	r1, [r2]
  27:main.c        ****     
 172              		.loc 1 27 0
 173 001e 374A     		ldr	r2, .L18+12
 174 0020 1370     		strb	r3, [r2]
 175              	.L15:
  30:main.c        ****         tickCount = 0;
 176              		.loc 1 30 0
 177 0022 364B     		ldr	r3, .L18+12
 178 0024 1B78     		ldrb	r3, [r3]	@ zero_extendqisi2
 179 0026 23B1     		cbz	r3, .L13
  31:main.c        ****         curFrame = 0;
 180              		.loc 1 31 0
 181 0028 0023     		movs	r3, #0
 182 002a 324A     		ldr	r2, .L18+4
 183 002c 1370     		strb	r3, [r2]
  33:main.c        ****         }
 184              		.loc 1 33 0
 185 002e 334A     		ldr	r2, .L18+12
 186 0030 1370     		strb	r3, [r2]
 187              	.L13:
  36:main.c        ****             nextFrame = 0;
 188              		.loc 1 36 0
 189 0032 314B     		ldr	r3, .L18+8
 190 0034 1A78     		ldrb	r2, [r3]	@ zero_extendqisi2
 191 0036 324B     		ldr	r3, .L18+16
 192 0038 1B68     		ldr	r3, [r3]
 193 003a 9A42     		cmp	r2, r3
 194 003c 02DB     		blt	.L14
  37:main.c        ****         }
 195              		.loc 1 37 0
 196 003e 0022     		movs	r2, #0
 197 0040 2D4B     		ldr	r3, .L18+8
 198 0042 1A70     		strb	r2, [r3]
 199              	.L14:
  40:main.c        ****             curFrame = nextFrame;
 200              		.loc 1 40 0
 201 0044 2B4B     		ldr	r3, .L18+4
 202 0046 1878     		ldrb	r0, [r3]	@ zero_extendqisi2
 203 0048 2B4B     		ldr	r3, .L18+8
 204 004a 1A78     		ldrb	r2, [r3]	@ zero_extendqisi2
ARM GAS  C:\Users\GGPC\AppData\Local\Temp\ccRj0Vs2.s 			page 6


 205 004c 1446     		mov	r4, r2
 206 004e 02EBC201 		add	r1, r2, r2, lsl #3
 207 0052 8B00     		lsls	r3, r1, #2
 208 0054 2A49     		ldr	r1, .L18+16
 209 0056 0B44     		add	r3, r3, r1
 210 0058 5B68     		ldr	r3, [r3, #4]
 211 005a 9842     		cmp	r0, r3
 212 005c E1D1     		bne	.L15
  41:main.c        ****             nextFrame++;
 213              		.loc 1 41 0
 214 005e 294E     		ldr	r6, .L18+20
 215 0060 3270     		strb	r2, [r6]
  42:main.c        ****             
 216              		.loc 1 42 0
 217 0062 0132     		adds	r2, r2, #1
 218 0064 244B     		ldr	r3, .L18+8
 219 0066 1A70     		strb	r2, [r3]
  44:main.c        ****             pin12_1_Write(scene.frameList[curFrame].port12[1]);
 220              		.loc 1 44 0
 221 0068 0D46     		mov	r5, r1
 222 006a 04EBC404 		add	r4, r4, r4, lsl #3
 223 006e A300     		lsls	r3, r4, #2
 224 0070 0B44     		add	r3, r3, r1
 225 0072 187A     		ldrb	r0, [r3, #8]	@ zero_extendqisi2
 226 0074 FFF7FEFF 		bl	pin12_0_Write
 227              	.LVL5:
  45:main.c        ****             pin12_2_Write(scene.frameList[curFrame].port12[2]);
 228              		.loc 1 45 0
 229 0078 3378     		ldrb	r3, [r6]	@ zero_extendqisi2
 230 007a 03EBC303 		add	r3, r3, r3, lsl #3
 231 007e 9A00     		lsls	r2, r3, #2
 232 0080 2A44     		add	r2, r2, r5
 233 0082 107B     		ldrb	r0, [r2, #12]	@ zero_extendqisi2
 234 0084 FFF7FEFF 		bl	pin12_1_Write
 235              	.LVL6:
  46:main.c        ****             pin12_3_Write(scene.frameList[curFrame].port12[3]);
 236              		.loc 1 46 0
 237 0088 3378     		ldrb	r3, [r6]	@ zero_extendqisi2
 238 008a 03EBC303 		add	r3, r3, r3, lsl #3
 239 008e 9A00     		lsls	r2, r3, #2
 240 0090 2A44     		add	r2, r2, r5
 241 0092 107C     		ldrb	r0, [r2, #16]	@ zero_extendqisi2
 242 0094 FFF7FEFF 		bl	pin12_2_Write
 243              	.LVL7:
  47:main.c        ****             pin12_4_Write(scene.frameList[curFrame].port12[4]);
 244              		.loc 1 47 0
 245 0098 3378     		ldrb	r3, [r6]	@ zero_extendqisi2
 246 009a 03EBC303 		add	r3, r3, r3, lsl #3
 247 009e 9A00     		lsls	r2, r3, #2
 248 00a0 2A44     		add	r2, r2, r5
 249 00a2 107D     		ldrb	r0, [r2, #20]	@ zero_extendqisi2
 250 00a4 FFF7FEFF 		bl	pin12_3_Write
 251              	.LVL8:
  48:main.c        ****             pin12_5_Write(scene.frameList[curFrame].port12[5]);
 252              		.loc 1 48 0
 253 00a8 3378     		ldrb	r3, [r6]	@ zero_extendqisi2
 254 00aa 03EBC303 		add	r3, r3, r3, lsl #3
ARM GAS  C:\Users\GGPC\AppData\Local\Temp\ccRj0Vs2.s 			page 7


 255 00ae 9A00     		lsls	r2, r3, #2
 256 00b0 2A44     		add	r2, r2, r5
 257 00b2 107E     		ldrb	r0, [r2, #24]	@ zero_extendqisi2
 258 00b4 FFF7FEFF 		bl	pin12_4_Write
 259              	.LVL9:
  49:main.c        ****             pin12_6_Write(scene.frameList[curFrame].port12[6]);
 260              		.loc 1 49 0
 261 00b8 3378     		ldrb	r3, [r6]	@ zero_extendqisi2
 262 00ba 03EBC303 		add	r3, r3, r3, lsl #3
 263 00be 9A00     		lsls	r2, r3, #2
 264 00c0 2A44     		add	r2, r2, r5
 265 00c2 107F     		ldrb	r0, [r2, #28]	@ zero_extendqisi2
 266 00c4 FFF7FEFF 		bl	pin12_5_Write
 267              	.LVL10:
  50:main.c        ****             pin12_7_Write(scene.frameList[curFrame].port12[7]);
 268              		.loc 1 50 0
 269 00c8 3378     		ldrb	r3, [r6]	@ zero_extendqisi2
 270 00ca 03EBC303 		add	r3, r3, r3, lsl #3
 271 00ce 9A00     		lsls	r2, r3, #2
 272 00d0 2A44     		add	r2, r2, r5
 273 00d2 92F82000 		ldrb	r0, [r2, #32]	@ zero_extendqisi2
 274 00d6 FFF7FEFF 		bl	pin12_6_Write
 275              	.LVL11:
  51:main.c        ****         }
 276              		.loc 1 51 0
 277 00da 3378     		ldrb	r3, [r6]	@ zero_extendqisi2
 278 00dc 03EBC303 		add	r3, r3, r3, lsl #3
 279 00e0 9A00     		lsls	r2, r3, #2
 280 00e2 1544     		add	r5, r5, r2
 281 00e4 95F82400 		ldrb	r0, [r5, #36]	@ zero_extendqisi2
 282 00e8 FFF7FEFF 		bl	pin12_7_Write
 283              	.LVL12:
 284 00ec 99E7     		b	.L15
 285              	.L19:
 286 00ee 00BF     		.align	2
 287              	.L18:
 288 00f0 00000000 		.word	timerIntISR
 289 00f4 00000000 		.word	tickCount
 290 00f8 00000000 		.word	nextFrame
 291 00fc 00000000 		.word	reset
 292 0100 00000000 		.word	scene
 293 0104 00000000 		.word	curFrame
 294              		.cfi_endproc
 295              	.LFE65:
 296              		.size	main, .-main
 297              		.comm	nextFrame,1,1
 298              		.comm	curFrame,1,1
 299              		.comm	reset,1,1
 300              		.comm	tickCount,1,1
 301              		.comm	scene,4,4
 302              		.text
 303              	.Letext0:
 304              		.file 2 "c:\\program files (x86)\\cypress\\psoc creator\\4.4\\psoc creator\\import\\gnu\\arm\\5.4.
 305              		.file 3 "c:\\program files (x86)\\cypress\\psoc creator\\4.4\\psoc creator\\import\\gnu\\arm\\5.4.
 306              		.file 4 "Generated_Source\\PSoC5/cytypes.h"
 307              		.file 5 "frame.h"
 308              		.file 6 "Generated_Source\\PSoC5/core_cm3.h"
ARM GAS  C:\Users\GGPC\AppData\Local\Temp\ccRj0Vs2.s 			page 8


 309              		.file 7 "main.h"
 310              		.file 8 "Generated_Source\\PSoC5/ledPin.h"
 311              		.file 9 "Generated_Source\\PSoC5/tickTimer.h"
 312              		.file 10 "Generated_Source\\PSoC5/timerInt.h"
 313              		.file 11 "Generated_Source\\PSoC5/pin12_0.h"
 314              		.file 12 "Generated_Source\\PSoC5/pin12_1.h"
 315              		.file 13 "Generated_Source\\PSoC5/pin12_2.h"
 316              		.file 14 "Generated_Source\\PSoC5/pin12_3.h"
 317              		.file 15 "Generated_Source\\PSoC5/pin12_4.h"
 318              		.file 16 "Generated_Source\\PSoC5/pin12_5.h"
 319              		.file 17 "Generated_Source\\PSoC5/pin12_6.h"
 320              		.file 18 "Generated_Source\\PSoC5/pin12_7.h"